; Function Attrs: mustprogress uwtable
define dso_local void @_ZN26cmCTestMultiProcessHandler7GetNameB5cxx11Ei(ptr dead_on_unwind noalias writable sret(%"class.std::__cxx11::basic_string") align 8 %0, ptr noundef nonnull align 8 dereferenceable(870) %1, i32 noundef %2) local_unnamed_addr #3 align 2 {
  %4 = alloca i32, align 4
  store i32 %2, ptr %4, align 4
  %5 = getelementptr inbounds i8, ptr %1, i64 392
  %6 = call noundef nonnull align 8 dereferenceable(8) ptr @_ZNSt3mapIiPN18cmCTestTestHandler21cmCTestTestPropertiesESt4lessIiESaISt4pairIKiS2_EEEixERS6_(ptr noundef nonnull align 8 dereferenceable(48) %5, ptr noundef nonnull align 4 dereferenceable(4) %4)
  %7 = load ptr, ptr %6, align 8
  %8 = getelementptr inbounds i8, ptr %7, i64 40
  call void @_ZNSt7__cxx1112basic_stringIcSt11char_traitsIcESaIcEEC1ERKS4_(ptr noundef nonnull align 8 dereferenceable(32) %0, ptr noundef nonnull align 8 dereferenceable(32) %8)
  ret void
}